; ModuleID = '43/301.c'
source_filename = "43/301.c"
target datalayout = "e-m:e-p270:32:32-p271:32:32-p272:64:64-i64:64-f80:128-n8:16:32:64-S128"
target triple = "x86_64-pc-linux-gnu"

@.str = private unnamed_addr constant [3 x i8] c"%d\00", align 1
@.str.1 = private unnamed_addr constant [7 x i8] c"%d %d\0A\00", align 1

; Function Attrs: noinline nounwind uwtable
define dso_local i32 @main() #0 {
  %1 = alloca i32, align 4
  %2 = alloca i32, align 4
  store i32 0, i32* %1, align 4
  %3 = call i32 (i8*, ...) @__isoc99_scanf(i8* getelementptr inbounds ([3 x i8], [3 x i8]* @.str, i64 0, i64 0), i32* %2)
  %4 = load i32, i32* %2, align 4
  call void @gbc(i32 %4)
  ret i32 0
}

declare dso_local i32 @__isoc99_scanf(i8*, ...) #1

; Function Attrs: noinline nounwind uwtable
define dso_local void @gbc(i32 %0) #0 {
  %2 = alloca i32, align 4
  %3 = alloca i32, align 4
  %4 = alloca i32, align 4
  %5 = alloca i32, align 4
  %6 = alloca i32, align 4
  store i32 %0, i32* %2, align 4
  %7 = load i32, i32* %2, align 4
  %8 = sdiv i32 %7, 2
  store i32 %8, i32* %3, align 4
  store i32 3, i32* %4, align 4
  br label %9

9:                                                ; preds = %32, %1
  %10 = load i32, i32* %4, align 4
  %11 = load i32, i32* %3, align 4
  %12 = icmp sle i32 %10, %11
  br i1 %12, label %13, label %35

13:                                               ; preds = %9
  %14 = load i32, i32* %4, align 4
  %15 = call i32 @ispn(i32 %14)
  store i32 %15, i32* %5, align 4
  %16 = load i32, i32* %2, align 4
  %17 = load i32, i32* %4, align 4
  %18 = sub nsw i32 %16, %17
  %19 = call i32 @ispn(i32 %18)
  store i32 %19, i32* %6, align 4
  %20 = load i32, i32* %5, align 4
  %21 = icmp ne i32 %20, 0
  br i1 %21, label %22, label %31

22:                                               ; preds = %13
  %23 = load i32, i32* %6, align 4
  %24 = icmp ne i32 %23, 0
  br i1 %24, label %25, label %31

25:                                               ; preds = %22
  %26 = load i32, i32* %4, align 4
  %27 = load i32, i32* %2, align 4
  %28 = load i32, i32* %4, align 4
  %29 = sub nsw i32 %27, %28
  %30 = call i32 (i8*, ...) @printf(i8* getelementptr inbounds ([7 x i8], [7 x i8]* @.str.1, i64 0, i64 0), i32 %26, i32 %29)
  br label %31

31:                                               ; preds = %25, %22, %13
  br label %32

32:                                               ; preds = %31
  %33 = load i32, i32* %4, align 4
  %34 = add nsw i32 %33, 2
  store i32 %34, i32* %4, align 4
  br label %9

35:                                               ; preds = %9
  ret void
}

; Function Attrs: noinline nounwind uwtable
define dso_local i32 @ispn(i32 %0) #0 {
  %2 = alloca i32, align 4
  %3 = alloca i32, align 4
  %4 = alloca i32, align 4
  %5 = alloca i32, align 4
  %6 = alloca i32, align 4
  store i32 %0, i32* %3, align 4
  store i32 1, i32* %6, align 4
  %7 = load i32, i32* %3, align 4
  %8 = srem i32 %7, 2
  %9 = icmp eq i32 %8, 0
  br i1 %9, label %10, label %17

10:                                               ; preds = %1
  %11 = load i32, i32* %3, align 4
  %12 = icmp eq i32 %11, 2
  br i1 %12, label %13, label %15

13:                                               ; preds = %10
  %14 = load i32, i32* %6, align 4
  store i32 %14, i32* %2, align 4
  br label %36

15:                                               ; preds = %10
  store i32 0, i32* %6, align 4
  %16 = load i32, i32* %6, align 4
  store i32 %16, i32* %2, align 4
  br label %36

17:                                               ; preds = %1
  %18 = load i32, i32* %3, align 4
  %19 = sdiv i32 %18, 2
  store i32 %19, i32* %5, align 4
  store i32 3, i32* %4, align 4
  br label %20

20:                                               ; preds = %31, %17
  %21 = load i32, i32* %4, align 4
  %22 = load i32, i32* %5, align 4
  %23 = icmp sle i32 %21, %22
  br i1 %23, label %24, label %34

24:                                               ; preds = %20
  %25 = load i32, i32* %3, align 4
  %26 = load i32, i32* %4, align 4
  %27 = srem i32 %25, %26
  %28 = icmp eq i32 %27, 0
  br i1 %28, label %29, label %30

29:                                               ; preds = %24
  store i32 0, i32* %6, align 4
  br label %34

30:                                               ; preds = %24
  br label %31

31:                                               ; preds = %30
  %32 = load i32, i32* %4, align 4
  %33 = add nsw i32 %32, 2
  store i32 %33, i32* %4, align 4
  br label %20

34:                                               ; preds = %29, %20
  %35 = load i32, i32* %6, align 4
  store i32 %35, i32* %2, align 4
  br label %36

36:                                               ; preds = %34, %15, %13
  %37 = load i32, i32* %2, align 4
  ret i32 %37
}

declare dso_local i32 @printf(i8*, ...) #1


!llvm.module.flags = !{!0}
!llvm.ident = !{!1}

!0 = !{i32 1, !"wchar_size", i32 4}
!1 = !{!"clang version 10.0.0-4ubuntu1 "}
